target datalayout = "e-m:e-p270:32:32-p271:32:32-p272:64:64-i64:64-i128:128-f80:128-n8:16:32:64-S128"
target triple = "x86_64-pc-linux-gnu"

@.str.1481 = private unnamed_addr constant [54 x i8] c"SESSION: IPv4, Destination %s, Protocol %d, Port %d. \00", align 1
@.str.1482 = private unnamed_addr constant [80 x i8] c"SESSION: IPv4-LSP, Destination %s, Short Call ID %d, Tunnel ID %d, Ext ID %0x. \00", align 1
@.str.1483 = private unnamed_addr constant [89 x i8] c"SESSION: IPv6-LSP, Destination %s, Short Call ID %d, Tunnel ID %d, Ext ID %0x%0x%0x%0x. \00", align 1
@.str.1484 = private unnamed_addr constant [51 x i8] c"SESSION: IPv4-Aggregate, Destination %s, DSCP %d. \00", align 1
@.str.1485 = private unnamed_addr constant [66 x i8] c"SESSION: IPv4-UNI, Destination %s, Tunnel ID %d, Ext Address %s. \00", align 1
@.str.1486 = private unnamed_addr constant [73 x i8] c"SESSION: IPv4-P2MP LSP TUNNEL, P2MP ID %u, Tunnel ID %d, Ext Tunnel %s. \00", align 1
@.str.1487 = private unnamed_addr constant [73 x i8] c"SESSION: IPv6-P2MP LSP TUNNEL, P2MP ID %u, Tunnel ID %d, Ext Tunnel %s. \00", align 1
@.str.1488 = private unnamed_addr constant [68 x i8] c"SESSION: IPv4-E-NNI, Destination %s, Tunnel ID %d, Ext Address %s. \00", align 1
@.str.1489 = private unnamed_addr constant [19 x i8] c"SESSION: Type %d. \00", align 1

; Function Attrs: null_pointer_is_valid sspstrong uwtable
define internal ptr @summary_session(ptr noundef %0, ptr noundef %1, i32 noundef %2) #1 {
  %4 = alloca ptr, align 8
  %5 = alloca ptr, align 8
  %6 = alloca ptr, align 8
  %7 = alloca i32, align 4
  store ptr %0, ptr %5, align 8
  store ptr %1, ptr %6, align 8
  store i32 %2, ptr %7, align 4
  %8 = load ptr, ptr %6, align 8
  %9 = load i32, ptr %7, align 4
  %10 = add i32 %9, 3
  %11 = call zeroext i8 @tvb_get_uint8(ptr noundef %8, i32 noundef %10)
  %12 = zext i8 %11 to i32
  switch i32 %12, label %170 [
    i32 1, label %13
    i32 7, label %31
    i32 8, label %53
    i32 9, label %87
    i32 11, label %100
    i32 13, label %118
    i32 14, label %135
    i32 15, label %152
  ]

13:                                               ; preds = %3
  %14 = load ptr, ptr %5, align 8
  %15 = load ptr, ptr %5, align 8
  %16 = load ptr, ptr %6, align 8
  %17 = load i32, ptr %7, align 4
  %18 = add i32 %17, 4
  %19 = call ptr @tvb_address_to_str(ptr noundef %15, ptr noundef %16, i32 noundef 2, i32 noundef %18)
  %20 = load ptr, ptr %6, align 8
  %21 = load i32, ptr %7, align 4
  %22 = add i32 %21, 8
  %23 = call zeroext i8 @tvb_get_uint8(ptr noundef %20, i32 noundef %22)
  %24 = zext i8 %23 to i32
  %25 = load ptr, ptr %6, align 8
  %26 = load i32, ptr %7, align 4
  %27 = add i32 %26, 10
  %28 = call zeroext i16 @tvb_get_ntohs(ptr noundef %25, i32 noundef %27)
  %29 = zext i16 %28 to i32
  %30 = call noalias ptr (ptr, ptr, ...) @wmem_strdup_printf(ptr noundef %14, ptr noundef @.str.1481, ptr noundef %19, i32 noundef %24, i32 noundef %29)
  store ptr %30, ptr %4, align 8
  br label %178

31:                                               ; preds = %3
  %32 = load ptr, ptr %5, align 8
  %33 = load ptr, ptr %5, align 8
  %34 = load ptr, ptr %6, align 8
  %35 = load i32, ptr %7, align 4
  %36 = add i32 %35, 4
  %37 = call ptr @tvb_address_to_str(ptr noundef %33, ptr noundef %34, i32 noundef 2, i32 noundef %36)
  %38 = load ptr, ptr %6, align 8
  %39 = load i32, ptr %7, align 4
  %40 = add i32 %39, 8
  %41 = call zeroext i16 @tvb_get_ntohs(ptr noundef %38, i32 noundef %40)
  %42 = zext i16 %41 to i32
  %43 = load ptr, ptr %6, align 8
  %44 = load i32, ptr %7, align 4
  %45 = add i32 %44, 10
  %46 = call zeroext i16 @tvb_get_ntohs(ptr noundef %43, i32 noundef %45)
  %47 = zext i16 %46 to i32
  %48 = load ptr, ptr %6, align 8
  %49 = load i32, ptr %7, align 4
  %50 = add i32 %49, 12
  %51 = call i32 @tvb_get_ntohl(ptr noundef %48, i32 noundef %50)
  %52 = call noalias ptr (ptr, ptr, ...) @wmem_strdup_printf(ptr noundef %32, ptr noundef @.str.1482, ptr noundef %37, i32 noundef %42, i32 noundef %47, i32 noundef %51)
  store ptr %52, ptr %4, align 8
  br label %178

53:                                               ; preds = %3
  %54 = load ptr, ptr %5, align 8
  %55 = load ptr, ptr %5, align 8
  %56 = load ptr, ptr %6, align 8
  %57 = load i32, ptr %7, align 4
  %58 = add i32 %57, 4
  %59 = call ptr @tvb_address_to_str(ptr noundef %55, ptr noundef %56, i32 noundef 3, i32 noundef %58)
  %60 = load ptr, ptr %6, align 8
  %61 = load i32, ptr %7, align 4
  %62 = add i32 %61, 20
  %63 = call zeroext i16 @tvb_get_ntohs(ptr noundef %60, i32 noundef %62)
  %64 = zext i16 %63 to i32
  %65 = load ptr, ptr %6, align 8
  %66 = load i32, ptr %7, align 4
  %67 = add i32 %66, 22
  %68 = call zeroext i16 @tvb_get_ntohs(ptr noundef %65, i32 noundef %67)
  %69 = zext i16 %68 to i32
  %70 = load ptr, ptr %6, align 8
  %71 = load i32, ptr %7, align 4
  %72 = add i32 %71, 24
  %73 = call i32 @tvb_get_ntohl(ptr noundef %70, i32 noundef %72)
  %74 = load ptr, ptr %6, align 8
  %75 = load i32, ptr %7, align 4
  %76 = add i32 %75, 28
  %77 = call i32 @tvb_get_ntohl(ptr noundef %74, i32 noundef %76)
  %78 = load ptr, ptr %6, align 8
  %79 = load i32, ptr %7, align 4
  %80 = add i32 %79, 32
  %81 = call i32 @tvb_get_ntohl(ptr noundef %78, i32 noundef %80)
  %82 = load ptr, ptr %6, align 8
  %83 = load i32, ptr %7, align 4
  %84 = add i32 %83, 36
  %85 = call i32 @tvb_get_ntohl(ptr noundef %82, i32 noundef %84)
  %86 = call noalias ptr (ptr, ptr, ...) @wmem_strdup_printf(ptr noundef %54, ptr noundef @.str.1483, ptr noundef %59, i32 noundef %64, i32 noundef %69, i32 noundef %73, i32 noundef %77, i32 noundef %81, i32 noundef %85)
  store ptr %86, ptr %4, align 8
  br label %178

87:                                               ; preds = %3
  %88 = load ptr, ptr %5, align 8
  %89 = load ptr, ptr %5, align 8
  %90 = load ptr, ptr %6, align 8
  %91 = load i32, ptr %7, align 4
  %92 = add i32 %91, 4
  %93 = call ptr @tvb_address_to_str(ptr noundef %89, ptr noundef %90, i32 noundef 2, i32 noundef %92)
  %94 = load ptr, ptr %6, align 8
  %95 = load i32, ptr %7, align 4
  %96 = add i32 %95, 11
  %97 = call zeroext i8 @tvb_get_uint8(ptr noundef %94, i32 noundef %96)
  %98 = zext i8 %97 to i32
  %99 = call noalias ptr (ptr, ptr, ...) @wmem_strdup_printf(ptr noundef %88, ptr noundef @.str.1484, ptr noundef %93, i32 noundef %98)
  store ptr %99, ptr %4, align 8
  br label %178

100:                                              ; preds = %3
  %101 = load ptr, ptr %5, align 8
  %102 = load ptr, ptr %5, align 8
  %103 = load ptr, ptr %6, align 8
  %104 = load i32, ptr %7, align 4
  %105 = add i32 %104, 4
  %106 = call ptr @tvb_address_to_str(ptr noundef %102, ptr noundef %103, i32 noundef 2, i32 noundef %105)
  %107 = load ptr, ptr %6, align 8
  %108 = load i32, ptr %7, align 4
  %109 = add i32 %108, 10
  %110 = call zeroext i16 @tvb_get_ntohs(ptr noundef %107, i32 noundef %109)
  %111 = zext i16 %110 to i32
  %112 = load ptr, ptr %5, align 8
  %113 = load ptr, ptr %6, align 8
  %114 = load i32, ptr %7, align 4
  %115 = add i32 %114, 12
  %116 = call ptr @tvb_address_to_str(ptr noundef %112, ptr noundef %113, i32 noundef 2, i32 noundef %115)
  %117 = call noalias ptr (ptr, ptr, ...) @wmem_strdup_printf(ptr noundef %101, ptr noundef @.str.1485, ptr noundef %106, i32 noundef %111, ptr noundef %116)
  store ptr %117, ptr %4, align 8
  br label %178

118:                                              ; preds = %3
  %119 = load ptr, ptr %5, align 8
  %120 = load ptr, ptr %6, align 8
  %121 = load i32, ptr %7, align 4
  %122 = add i32 %121, 4
  %123 = call i32 @tvb_get_ntohl(ptr noundef %120, i32 noundef %122)
  %124 = load ptr, ptr %6, align 8
  %125 = load i32, ptr %7, align 4
  %126 = add i32 %125, 10
  %127 = call zeroext i16 @tvb_get_ntohs(ptr noundef %124, i32 noundef %126)
  %128 = zext i16 %127 to i32
  %129 = load ptr, ptr %5, align 8
  %130 = load ptr, ptr %6, align 8
  %131 = load i32, ptr %7, align 4
  %132 = add i32 %131, 12
  %133 = call ptr @tvb_address_to_str(ptr noundef %129, ptr noundef %130, i32 noundef 2, i32 noundef %132)
  %134 = call noalias ptr (ptr, ptr, ...) @wmem_strdup_printf(ptr noundef %119, ptr noundef @.str.1486, i32 noundef %123, i32 noundef %128, ptr noundef %133)
  store ptr %134, ptr %4, align 8
  br label %178

135:                                              ; preds = %3
  %136 = load ptr, ptr %5, align 8
  %137 = load ptr, ptr %6, align 8
  %138 = load i32, ptr %7, align 4
  %139 = add i32 %138, 4
  %140 = call i32 @tvb_get_ntohl(ptr noundef %137, i32 noundef %139)
  %141 = load ptr, ptr %6, align 8
  %142 = load i32, ptr %7, align 4
  %143 = add i32 %142, 10
  %144 = call zeroext i16 @tvb_get_ntohs(ptr noundef %141, i32 noundef %143)
  %145 = zext i16 %144 to i32
  %146 = load ptr, ptr %5, align 8
  %147 = load ptr, ptr %6, align 8
  %148 = load i32, ptr %7, align 4
  %149 = add i32 %148, 12
  %150 = call ptr @tvb_address_to_str(ptr noundef %146, ptr noundef %147, i32 noundef 3, i32 noundef %149)
  %151 = call noalias ptr (ptr, ptr, ...) @wmem_strdup_printf(ptr noundef %136, ptr noundef @.str.1487, i32 noundef %140, i32 noundef %145, ptr noundef %150)
  store ptr %151, ptr %4, align 8
  br label %178

152:                                              ; preds = %3
  %153 = load ptr, ptr %5, align 8
  %154 = load ptr, ptr %5, align 8
  %155 = load ptr, ptr %6, align 8
  %156 = load i32, ptr %7, align 4
  %157 = add i32 %156, 4
  %158 = call ptr @tvb_address_to_str(ptr noundef %154, ptr noundef %155, i32 noundef 2, i32 noundef %157)
  %159 = load ptr, ptr %6, align 8
  %160 = load i32, ptr %7, align 4
  %161 = add i32 %160, 10
  %162 = call zeroext i16 @tvb_get_ntohs(ptr noundef %159, i32 noundef %161)
  %163 = zext i16 %162 to i32
  %164 = load ptr, ptr %5, align 8
  %165 = load ptr, ptr %6, align 8
  %166 = load i32, ptr %7, align 4
  %167 = add i32 %166, 12
  %168 = call ptr @tvb_address_to_str(ptr noundef %164, ptr noundef %165, i32 noundef 2, i32 noundef %167)
  %169 = call noalias ptr (ptr, ptr, ...) @wmem_strdup_printf(ptr noundef %153, ptr noundef @.str.1488, ptr noundef %158, i32 noundef %163, ptr noundef %168)
  store ptr %169, ptr %4, align 8
  br label %178

170:                                              ; preds = %3
  %171 = load ptr, ptr %5, align 8
  %172 = load ptr, ptr %6, align 8
  %173 = load i32, ptr %7, align 4
  %174 = add i32 %173, 3
  %175 = call zeroext i8 @tvb_get_uint8(ptr noundef %172, i32 noundef %174)
  %176 = zext i8 %175 to i32
  %177 = call noalias ptr (ptr, ptr, ...) @wmem_strdup_printf(ptr noundef %171, ptr noundef @.str.1489, i32 noundef %176)
  store ptr %177, ptr %4, align 8
  br label %178

178:                                              ; preds = %170, %152, %135, %118, %100, %87, %53, %31, %13
  %179 = load ptr, ptr %4, align 8
  ret ptr %179
}