; Function Attrs: null_pointer_is_valid sspstrong uwtable
define internal fastcc noalias ptr @summary_session(ptr noundef %0, ptr noundef %1, i32 noundef %2) unnamed_addr #1 {
  %4 = add i32 %2, 3
  %5 = tail call zeroext i8 @tvb_get_uint8(ptr noundef %1, i32 noundef %4)
  switch i8 %5, label %89 [
    i8 1, label %6
    i8 7, label %16
    i8 8, label %28
    i8 9, label %46
    i8 11, label %53
    i8 13, label %62
    i8 14, label %71
    i8 15, label %80
  ]

6:                                                ; preds = %3
  %7 = add i32 %2, 4
  %8 = tail call ptr @tvb_address_to_str(ptr noundef %0, ptr noundef %1, i32 noundef 2, i32 noundef %7)
  %9 = add i32 %2, 8
  %10 = tail call zeroext i8 @tvb_get_uint8(ptr noundef %1, i32 noundef %9)
  %11 = zext i8 %10 to i32
  %12 = add i32 %2, 10
  %13 = tail call zeroext i16 @tvb_get_ntohs(ptr noundef %1, i32 noundef %12)
  %14 = zext i16 %13 to i32
  %15 = tail call noalias ptr (ptr, ptr, ...) @wmem_strdup_printf(ptr noundef %0, ptr noundef nonnull @.str.1481, ptr noundef %8, i32 noundef %11, i32 noundef %14)
  br label %93

16:                                               ; preds = %3
  %17 = add i32 %2, 4
  %18 = tail call ptr @tvb_address_to_str(ptr noundef %0, ptr noundef %1, i32 noundef 2, i32 noundef %17)
  %19 = add i32 %2, 8
  %20 = tail call zeroext i16 @tvb_get_ntohs(ptr noundef %1, i32 noundef %19)
  %21 = zext i16 %20 to i32
  %22 = add i32 %2, 10
  %23 = tail call zeroext i16 @tvb_get_ntohs(ptr noundef %1, i32 noundef %22)
  %24 = zext i16 %23 to i32
  %25 = add i32 %2, 12
  %26 = tail call i32 @tvb_get_ntohl(ptr noundef %1, i32 noundef %25)
  %27 = tail call noalias ptr (ptr, ptr, ...) @wmem_strdup_printf(ptr noundef %0, ptr noundef nonnull @.str.1482, ptr noundef %18, i32 noundef %21, i32 noundef %24, i32 noundef %26)
  br label %93

28:                                               ; preds = %3
  %29 = add i32 %2, 4
  %30 = tail call ptr @tvb_address_to_str(ptr noundef %0, ptr noundef %1, i32 noundef 3, i32 noundef %29)
  %31 = add i32 %2, 20
  %32 = tail call zeroext i16 @tvb_get_ntohs(ptr noundef %1, i32 noundef %31)
  %33 = zext i16 %32 to i32
  %34 = add i32 %2, 22
  %35 = tail call zeroext i16 @tvb_get_ntohs(ptr noundef %1, i32 noundef %34)
  %36 = zext i16 %35 to i32
  %37 = add i32 %2, 24
  %38 = tail call i32 @tvb_get_ntohl(ptr noundef %1, i32 noundef %37)
  %39 = add i32 %2, 28
  %40 = tail call i32 @tvb_get_ntohl(ptr noundef %1, i32 noundef %39)
  %41 = add i32 %2, 32
  %42 = tail call i32 @tvb_get_ntohl(ptr noundef %1, i32 noundef %41)
  %43 = add i32 %2, 36
  %44 = tail call i32 @tvb_get_ntohl(ptr noundef %1, i32 noundef %43)
  %45 = tail call noalias ptr (ptr, ptr, ...) @wmem_strdup_printf(ptr noundef %0, ptr noundef nonnull @.str.1483, ptr noundef %30, i32 noundef %33, i32 noundef %36, i32 noundef %38, i32 noundef %40, i32 noundef %42, i32 noundef %44)
  br label %93

46:                                               ; preds = %3
  %47 = add i32 %2, 4
  %48 = tail call ptr @tvb_address_to_str(ptr noundef %0, ptr noundef %1, i32 noundef 2, i32 noundef %47)
  %49 = add i32 %2, 11
  %50 = tail call zeroext i8 @tvb_get_uint8(ptr noundef %1, i32 noundef %49)
  %51 = zext i8 %50 to i32
  %52 = tail call noalias ptr (ptr, ptr, ...) @wmem_strdup_printf(ptr noundef %0, ptr noundef nonnull @.str.1484, ptr noundef %48, i32 noundef %51)
  br label %93

53:                                               ; preds = %3
  %54 = add i32 %2, 4
  %55 = tail call ptr @tvb_address_to_str(ptr noundef %0, ptr noundef %1, i32 noundef 2, i32 noundef %54)
  %56 = add i32 %2, 10
  %57 = tail call zeroext i16 @tvb_get_ntohs(ptr noundef %1, i32 noundef %56)
  %58 = zext i16 %57 to i32
  %59 = add i32 %2, 12
  %60 = tail call ptr @tvb_address_to_str(ptr noundef %0, ptr noundef %1, i32 noundef 2, i32 noundef %59)
  %61 = tail call noalias ptr (ptr, ptr, ...) @wmem_strdup_printf(ptr noundef %0, ptr noundef nonnull @.str.1485, ptr noundef %55, i32 noundef %58, ptr noundef %60)
  br label %93

62:                                               ; preds = %3
  %63 = add i32 %2, 4
  %64 = tail call i32 @tvb_get_ntohl(ptr noundef %1, i32 noundef %63)
  %65 = add i32 %2, 10
  %66 = tail call zeroext i16 @tvb_get_ntohs(ptr noundef %1, i32 noundef %65)
  %67 = zext i16 %66 to i32
  %68 = add i32 %2, 12
  %69 = tail call ptr @tvb_address_to_str(ptr noundef %0, ptr noundef %1, i32 noundef 2, i32 noundef %68)
  %70 = tail call noalias ptr (ptr, ptr, ...) @wmem_strdup_printf(ptr noundef %0, ptr noundef nonnull @.str.1486, i32 noundef %64, i32 noundef %67, ptr noundef %69)
  br label %93

71:                                               ; preds = %3
  %72 = add i32 %2, 4
  %73 = tail call i32 @tvb_get_ntohl(ptr noundef %1, i32 noundef %72)
  %74 = add i32 %2, 10
  %75 = tail call zeroext i16 @tvb_get_ntohs(ptr noundef %1, i32 noundef %74)
  %76 = zext i16 %75 to i32
  %77 = add i32 %2, 12
  %78 = tail call ptr @tvb_address_to_str(ptr noundef %0, ptr noundef %1, i32 noundef 3, i32 noundef %77)
  %79 = tail call noalias ptr (ptr, ptr, ...) @wmem_strdup_printf(ptr noundef %0, ptr noundef nonnull @.str.1487, i32 noundef %73, i32 noundef %76, ptr noundef %78)
  br label %93

80:                                               ; preds = %3
  %81 = add i32 %2, 4
  %82 = tail call ptr @tvb_address_to_str(ptr noundef %0, ptr noundef %1, i32 noundef 2, i32 noundef %81)
  %83 = add i32 %2, 10
  %84 = tail call zeroext i16 @tvb_get_ntohs(ptr noundef %1, i32 noundef %83)
  %85 = zext i16 %84 to i32
  %86 = add i32 %2, 12
  %87 = tail call ptr @tvb_address_to_str(ptr noundef %0, ptr noundef %1, i32 noundef 2, i32 noundef %86)
  %88 = tail call noalias ptr (ptr, ptr, ...) @wmem_strdup_printf(ptr noundef %0, ptr noundef nonnull @.str.1488, ptr noundef %82, i32 noundef %85, ptr noundef %87)
  br label %93

89:                                               ; preds = %3
  %90 = tail call zeroext i8 @tvb_get_uint8(ptr noundef %1, i32 noundef %4)
  %91 = zext i8 %90 to i32
  %92 = tail call noalias ptr (ptr, ptr, ...) @wmem_strdup_printf(ptr noundef %0, ptr noundef nonnull @.str.1489, i32 noundef %91)
  br label %93

93:                                               ; preds = %89, %80, %71, %62, %53, %46, %28, %16, %6
  %.0 = phi ptr [ %92, %89 ], [ %88, %80 ], [ %79, %71 ], [ %70, %62 ], [ %61, %53 ], [ %52, %46 ], [ %45, %28 ], [ %27, %16 ], [ %15, %6 ]
  ret ptr %.0
}